; Function Attrs: mustprogress nofree norecurse nosync nounwind willreturn memory(argmem: read) uwtable
define dso_local zeroext i1 @data_get_bool(ptr noundef readonly captures(address_is_null) %0) local_unnamed_addr #6 {
  %.not = icmp eq ptr %0, null
  br i1 %.not, label %6, label %2

2:                                                ; preds = %1
  %3 = getelementptr inbounds nuw i8, ptr %0, i64 8
  %4 = load i8, ptr %3, align 8, !range !19, !noundef !20
  %5 = trunc nuw i8 %4 to i1
  br label %6

6:                                                ; preds = %1, %2
  %.0 = phi i1 [ %5, %2 ], [ false, %1 ]
  ret i1 %.0
}